#include <math.h>
#include <stdio.h>
#include <stdlib.h>
#include <string.h>

int main(){
	int i,p=0,t=0,r=0;
	double k,q;
	char gen1[1000],gen2[1000];
	scanf("%lf",&k);
	scanf("%s",gen1);
	scanf("%s",gen2);
	if(strlen(gen1)!=strlen(gen2)){
	printf("error\n");
	}else{
		for(i=0;i<strlen(gen1);i++){
			if(gen1[i]!='A'&&gen1[i]!='C'&&gen1[i]!='G'&&gen1[i]!='T'){
		r++;
			}
		}
		for(i=0;i<strlen(gen2);i++){
		if(gen2[i]!='A'&&gen2[i]!='C'&&gen2[i]!='G'&&gen2[i]!='T')
		r++;
		}
		if(r>0){
		printf ("error");
        t=0;
		}else{
		t=1;
		}
	if(t==1){
		for(i=0;i<strlen(gen1)+1;i++){
			if(gen1[i]==gen2[i]){
			p++;
			}
		}
	    q=1.0*p/(strlen(gen1));
		 if(q>k){
		 printf("yes\n");
		 }else{
		 printf("no\n");
		 }
	}
}
return 0;
}