target datalayout = "e-m:e-p270:32:32-p271:32:32-p272:64:64-i64:64-f80:128-n8:16:32:64-S128"
target triple = "x86_64-pc-linux-gnu"

@.str = private unnamed_addr constant [4 x i8] c"%lf\00", align 1
@.str.1 = private unnamed_addr constant [3 x i8] c"%s\00", align 1
@.str.2 = private unnamed_addr constant [7 x i8] c"error\0A\00", align 1
@.str.3 = private unnamed_addr constant [6 x i8] c"error\00", align 1
@.str.4 = private unnamed_addr constant [5 x i8] c"yes\0A\00", align 1
@.str.5 = private unnamed_addr constant [4 x i8] c"no\0A\00", align 1

; Function Attrs: noinline nounwind uwtable
define dso_local i32 @main() #0 {
  %1 = alloca i32, align 4
  %2 = alloca i32, align 4
  %3 = alloca i32, align 4
  %4 = alloca i32, align 4
  %5 = alloca i32, align 4
  %6 = alloca double, align 8
  %7 = alloca double, align 8
  %8 = alloca [1000 x i8], align 16
  %9 = alloca [1000 x i8], align 16
  store i32 0, i32* %1, align 4
  store i32 0, i32* %3, align 4
  store i32 0, i32* %4, align 4
  store i32 0, i32* %5, align 4
  %10 = call i32 (i8*, ...) @__isoc99_scanf(i8* getelementptr inbounds ([4 x i8], [4 x i8]* @.str, i64 0, i64 0), double* %6)
  %11 = getelementptr inbounds [1000 x i8], [1000 x i8]* %8, i64 0, i64 0
  %12 = call i32 (i8*, ...) @__isoc99_scanf(i8* getelementptr inbounds ([3 x i8], [3 x i8]* @.str.1, i64 0, i64 0), i8* %11)
  %13 = getelementptr inbounds [1000 x i8], [1000 x i8]* %9, i64 0, i64 0
  %14 = call i32 (i8*, ...) @__isoc99_scanf(i8* getelementptr inbounds ([3 x i8], [3 x i8]* @.str.1, i64 0, i64 0), i8* %13)
  %15 = getelementptr inbounds [1000 x i8], [1000 x i8]* %8, i64 0, i64 0
  %16 = call i64 @strlen(i8* %15) #3
  %17 = getelementptr inbounds [1000 x i8], [1000 x i8]* %9, i64 0, i64 0
  %18 = call i64 @strlen(i8* %17) #3
  %19 = icmp ne i64 %16, %18
  br i1 %19, label %20, label %22

20:                                               ; preds = %0
  %21 = call i32 (i8*, ...) @printf(i8* getelementptr inbounds ([7 x i8], [7 x i8]* @.str.2, i64 0, i64 0))
  br label %159

22:                                               ; preds = %0
  store i32 0, i32* %2, align 4
  br label %23

23:                                               ; preds = %61, %22
  %24 = load i32, i32* %2, align 4
  %25 = sext i32 %24 to i64
  %26 = getelementptr inbounds [1000 x i8], [1000 x i8]* %8, i64 0, i64 0
  %27 = call i64 @strlen(i8* %26) #3
  %28 = icmp ult i64 %25, %27
  br i1 %28, label %29, label %64

29:                                               ; preds = %23
  %30 = load i32, i32* %2, align 4
  %31 = sext i32 %30 to i64
  %32 = getelementptr inbounds [1000 x i8], [1000 x i8]* %8, i64 0, i64 %31
  %33 = load i8, i8* %32, align 1
  %34 = sext i8 %33 to i32
  %35 = icmp ne i32 %34, 65
  br i1 %35, label %36, label %60

36:                                               ; preds = %29
  %37 = load i32, i32* %2, align 4
  %38 = sext i32 %37 to i64
  %39 = getelementptr inbounds [1000 x i8], [1000 x i8]* %8, i64 0, i64 %38
  %40 = load i8, i8* %39, align 1
  %41 = sext i8 %40 to i32
  %42 = icmp ne i32 %41, 67
  br i1 %42, label %43, label %60

43:                                               ; preds = %36
  %44 = load i32, i32* %2, align 4
  %45 = sext i32 %44 to i64
  %46 = getelementptr inbounds [1000 x i8], [1000 x i8]* %8, i64 0, i64 %45
  %47 = load i8, i8* %46, align 1
  %48 = sext i8 %47 to i32
  %49 = icmp ne i32 %48, 71
  br i1 %49, label %50, label %60

50:                                               ; preds = %43
  %51 = load i32, i32* %2, align 4
  %52 = sext i32 %51 to i64
  %53 = getelementptr inbounds [1000 x i8], [1000 x i8]* %8, i64 0, i64 %52
  %54 = load i8, i8* %53, align 1
  %55 = sext i8 %54 to i32
  %56 = icmp ne i32 %55, 84
  br i1 %56, label %57, label %60

57:                                               ; preds = %50
  %58 = load i32, i32* %5, align 4
  %59 = add nsw i32 %58, 1
  store i32 %59, i32* %5, align 4
  br label %60

60:                                               ; preds = %57, %50, %43, %36, %29
  br label %61

61:                                               ; preds = %60
  %62 = load i32, i32* %2, align 4
  %63 = add nsw i32 %62, 1
  store i32 %63, i32* %2, align 4
  br label %23

64:                                               ; preds = %23
  store i32 0, i32* %2, align 4
  br label %65

65:                                               ; preds = %103, %64
  %66 = load i32, i32* %2, align 4
  %67 = sext i32 %66 to i64
  %68 = getelementptr inbounds [1000 x i8], [1000 x i8]* %9, i64 0, i64 0
  %69 = call i64 @strlen(i8* %68) #3
  %70 = icmp ult i64 %67, %69
  br i1 %70, label %71, label %106

71:                                               ; preds = %65
  %72 = load i32, i32* %2, align 4
  %73 = sext i32 %72 to i64
  %74 = getelementptr inbounds [1000 x i8], [1000 x i8]* %9, i64 0, i64 %73
  %75 = load i8, i8* %74, align 1
  %76 = sext i8 %75 to i32
  %77 = icmp ne i32 %76, 65
  br i1 %77, label %78, label %102

78:                                               ; preds = %71
  %79 = load i32, i32* %2, align 4
  %80 = sext i32 %79 to i64
  %81 = getelementptr inbounds [1000 x i8], [1000 x i8]* %9, i64 0, i64 %80
  %82 = load i8, i8* %81, align 1
  %83 = sext i8 %82 to i32
  %84 = icmp ne i32 %83, 67
  br i1 %84, label %85, label %102

85:                                               ; preds = %78
  %86 = load i32, i32* %2, align 4
  %87 = sext i32 %86 to i64
  %88 = getelementptr inbounds [1000 x i8], [1000 x i8]* %9, i64 0, i64 %87
  %89 = load i8, i8* %88, align 1
  %90 = sext i8 %89 to i32
  %91 = icmp ne i32 %90, 71
  br i1 %91, label %92, label %102

92:                                               ; preds = %85
  %93 = load i32, i32* %2, align 4
  %94 = sext i32 %93 to i64
  %95 = getelementptr inbounds [1000 x i8], [1000 x i8]* %9, i64 0, i64 %94
  %96 = load i8, i8* %95, align 1
  %97 = sext i8 %96 to i32
  %98 = icmp ne i32 %97, 84
  br i1 %98, label %99, label %102

99:                                               ; preds = %92
  %100 = load i32, i32* %5, align 4
  %101 = add nsw i32 %100, 1
  store i32 %101, i32* %5, align 4
  br label %102

102:                                              ; preds = %99, %92, %85, %78, %71
  br label %103

103:                                              ; preds = %102
  %104 = load i32, i32* %2, align 4
  %105 = add nsw i32 %104, 1
  store i32 %105, i32* %2, align 4
  br label %65

106:                                              ; preds = %65
  %107 = load i32, i32* %5, align 4
  %108 = icmp sgt i32 %107, 0
  br i1 %108, label %109, label %111

109:                                              ; preds = %106
  %110 = call i32 (i8*, ...) @printf(i8* getelementptr inbounds ([6 x i8], [6 x i8]* @.str.3, i64 0, i64 0))
  store i32 0, i32* %4, align 4
  br label %112

111:                                              ; preds = %106
  store i32 1, i32* %4, align 4
  br label %112

112:                                              ; preds = %111, %109
  %113 = load i32, i32* %4, align 4
  %114 = icmp eq i32 %113, 1
  br i1 %114, label %115, label %158

115:                                              ; preds = %112
  store i32 0, i32* %2, align 4
  br label %116

116:                                              ; preds = %139, %115
  %117 = load i32, i32* %2, align 4
  %118 = sext i32 %117 to i64
  %119 = getelementptr inbounds [1000 x i8], [1000 x i8]* %8, i64 0, i64 0
  %120 = call i64 @strlen(i8* %119) #3
  %121 = add i64 %120, 1
  %122 = icmp ult i64 %118, %121
  br i1 %122, label %123, label %142

123:                                              ; preds = %116
  %124 = load i32, i32* %2, align 4
  %125 = sext i32 %124 to i64
  %126 = getelementptr inbounds [1000 x i8], [1000 x i8]* %8, i64 0, i64 %125
  %127 = load i8, i8* %126, align 1
  %128 = sext i8 %127 to i32
  %129 = load i32, i32* %2, align 4
  %130 = sext i32 %129 to i64
  %131 = getelementptr inbounds [1000 x i8], [1000 x i8]* %9, i64 0, i64 %130
  %132 = load i8, i8* %131, align 1
  %133 = sext i8 %132 to i32
  %134 = icmp eq i32 %128, %133
  br i1 %134, label %135, label %138

135:                                              ; preds = %123
  %136 = load i32, i32* %3, align 4
  %137 = add nsw i32 %136, 1
  store i32 %137, i32* %3, align 4
  br label %138

138:                                              ; preds = %135, %123
  br label %139

139:                                              ; preds = %138
  %140 = load i32, i32* %2, align 4
  %141 = add nsw i32 %140, 1
  store i32 %141, i32* %2, align 4
  br label %116

142:                                              ; preds = %116
  %143 = load i32, i32* %3, align 4
  %144 = sitofp i32 %143 to double
  %145 = fmul double 1.000000e+00, %144
  %146 = getelementptr inbounds [1000 x i8], [1000 x i8]* %8, i64 0, i64 0
  %147 = call i64 @strlen(i8* %146) #3
  %148 = uitofp i64 %147 to double
  %149 = fdiv double %145, %148
  store double %149, double* %7, align 8
  %150 = load double, double* %7, align 8
  %151 = load double, double* %6, align 8
  %152 = fcmp ogt double %150, %151
  br i1 %152, label %153, label %155

153:                                              ; preds = %142
  %154 = call i32 (i8*, ...) @printf(i8* getelementptr inbounds ([5 x i8], [5 x i8]* @.str.4, i64 0, i64 0))
  br label %157

155:                                              ; preds = %142
  %156 = call i32 (i8*, ...) @printf(i8* getelementptr inbounds ([4 x i8], [4 x i8]* @.str.5, i64 0, i64 0))
  br label %157

157:                                              ; preds = %155, %153
  br label %158

158:                                              ; preds = %157, %112
  br label %159

159:                                              ; preds = %158, %20
  ret i32 0
}